; Function Attrs: mustprogress uwtable
define hidden noundef zeroext i1 @_ZNK10func_entry7eq_argsER11ast_managerjPKP4expr(ptr nocapture noundef nonnull readonly align 8 dereferenceable(16) %this, ptr noundef nonnull align 8 dereferenceable(976) %m, i32 noundef %arity, ptr nocapture noundef readonly %args) local_unnamed_addr #3 align 2 {
entry:
  %cmp4 = icmp eq i32 %arity, 0
  br i1 %cmp4, label %return, label %for.body.lr.ph

for.body.lr.ph:                                   ; preds = %entry
  %m_args = getelementptr inbounds i8, ptr %this, i64 16
  %0 = zext i32 %arity to i64
  %1 = load ptr, ptr %m_args, align 8
  %2 = load ptr, ptr %args, align 8
  %call8 = tail call noundef zeroext i1 @_ZNK11ast_manager9are_equalEP4exprS1_(ptr noundef nonnull align 8 dereferenceable(976) %m, ptr noundef %1, ptr noundef %2)
  br i1 %call8, label %for.cond, label %return

for.cond:                                         ; preds = %for.body.lr.ph, %for.body
  %indvars.iv9 = phi i64 [ %indvars.iv.next, %for.body ], [ 0, %for.body.lr.ph ]
  %indvars.iv.next = add nuw nsw i64 %indvars.iv9, 1
  %exitcond = icmp eq i64 %indvars.iv.next, %0
  br i1 %exitcond, label %return.loopexit, label %for.body, !llvm.loop !6

for.body:                                         ; preds = %for.cond
  %arrayidx = getelementptr inbounds [0 x ptr], ptr %m_args, i64 0, i64 %indvars.iv.next
  %3 = load ptr, ptr %arrayidx, align 8
  %arrayidx3 = getelementptr inbounds ptr, ptr %args, i64 %indvars.iv.next
  %4 = load ptr, ptr %arrayidx3, align 8
  %call = tail call noundef zeroext i1 @_ZNK11ast_manager9are_equalEP4exprS1_(ptr noundef nonnull align 8 dereferenceable(976) %m, ptr noundef %3, ptr noundef %4)
  br i1 %call, label %for.cond, label %return.loopexit, !llvm.loop !6

return.loopexit:                                  ; preds = %for.body, %for.cond
  %cmp.le = icmp uge i64 %indvars.iv.next, %0
  br label %return

return:                                           ; preds = %return.loopexit, %for.body.lr.ph, %entry
  %cmp.lcssa = phi i1 [ true, %entry ], [ false, %for.body.lr.ph ], [ %cmp.le, %return.loopexit ]
  ret i1 %cmp.lcssa
}